#include <math.h>
#include <stdio.h>
#include <stdlib.h>
#include <string.h>

int main()
{
	void f(int s[],int n);
	int a[100],b[100][100];
	int n,i=1,j;
	char c;
	do{
		scanf("%d",&a[i]);
		i++;
		scanf("%c",&c);
	}while(c!='\n');
	n=i-1;
	for(i=1;i<=n;i++)
	{
		for(j=1;j<=a[i];j++)
		{
			scanf("%d",&b[i][j]);
		}
	}
	f(b[1],a[1]);
	for(i=2;i<=n;i++)
	{
		printf(" ");
		f(b[i],a[i]);
	}
	return 0;
}
void f(int s[],int n)
{
	int i,j,t;
	for(i=2;i<=n;i++)
	{
		for(j=i-1;j>=1;j--)
		{
			if(s[j+1]<s[j])
			{
				t=s[j];
				s[j]=s[j+1];
				s[j+1]=t;
			}
		}
	}
	printf("%d",s[1]);
	for(i=2;i<=n;i++)
	{
		printf(" %d",s[i]);
	}
}
