; ModuleID = '8/632.c'
source_filename = "8/632.c"
target datalayout = "e-m:e-p270:32:32-p271:32:32-p272:64:64-i64:64-f80:128-n8:16:32:64-S128"
target triple = "x86_64-pc-linux-gnu"

@.str = private unnamed_addr constant [3 x i8] c"%d\00", align 1
@.str.1 = private unnamed_addr constant [3 x i8] c"%c\00", align 1
@.str.2 = private unnamed_addr constant [2 x i8] c" \00", align 1
@.str.3 = private unnamed_addr constant [4 x i8] c" %d\00", align 1

; Function Attrs: noinline nounwind uwtable
define dso_local i32 @main() #0 {
  %1 = alloca i32, align 4
  %2 = alloca [100 x i32], align 16
  %3 = alloca [100 x [100 x i32]], align 16
  %4 = alloca i32, align 4
  %5 = alloca i32, align 4
  %6 = alloca i32, align 4
  %7 = alloca i8, align 1
  store i32 0, i32* %1, align 4
  store i32 1, i32* %5, align 4
  br label %8

8:                                                ; preds = %16, %0
  %9 = load i32, i32* %5, align 4
  %10 = sext i32 %9 to i64
  %11 = getelementptr inbounds [100 x i32], [100 x i32]* %2, i64 0, i64 %10
  %12 = call i32 (i8*, ...) @__isoc99_scanf(i8* getelementptr inbounds ([3 x i8], [3 x i8]* @.str, i64 0, i64 0), i32* %11)
  %13 = load i32, i32* %5, align 4
  %14 = add nsw i32 %13, 1
  store i32 %14, i32* %5, align 4
  %15 = call i32 (i8*, ...) @__isoc99_scanf(i8* getelementptr inbounds ([3 x i8], [3 x i8]* @.str.1, i64 0, i64 0), i8* %7)
  br label %16

16:                                               ; preds = %8
  %17 = load i8, i8* %7, align 1
  %18 = sext i8 %17 to i32
  %19 = icmp ne i32 %18, 10
  br i1 %19, label %8, label %20

20:                                               ; preds = %16
  %21 = load i32, i32* %5, align 4
  %22 = sub nsw i32 %21, 1
  store i32 %22, i32* %4, align 4
  store i32 1, i32* %5, align 4
  br label %23

23:                                               ; preds = %47, %20
  %24 = load i32, i32* %5, align 4
  %25 = load i32, i32* %4, align 4
  %26 = icmp sle i32 %24, %25
  br i1 %26, label %27, label %50

27:                                               ; preds = %23
  store i32 1, i32* %6, align 4
  br label %28

28:                                               ; preds = %43, %27
  %29 = load i32, i32* %6, align 4
  %30 = load i32, i32* %5, align 4
  %31 = sext i32 %30 to i64
  %32 = getelementptr inbounds [100 x i32], [100 x i32]* %2, i64 0, i64 %31
  %33 = load i32, i32* %32, align 4
  %34 = icmp sle i32 %29, %33
  br i1 %34, label %35, label %46

35:                                               ; preds = %28
  %36 = load i32, i32* %5, align 4
  %37 = sext i32 %36 to i64
  %38 = getelementptr inbounds [100 x [100 x i32]], [100 x [100 x i32]]* %3, i64 0, i64 %37
  %39 = load i32, i32* %6, align 4
  %40 = sext i32 %39 to i64
  %41 = getelementptr inbounds [100 x i32], [100 x i32]* %38, i64 0, i64 %40
  %42 = call i32 (i8*, ...) @__isoc99_scanf(i8* getelementptr inbounds ([3 x i8], [3 x i8]* @.str, i64 0, i64 0), i32* %41)
  br label %43

43:                                               ; preds = %35
  %44 = load i32, i32* %6, align 4
  %45 = add nsw i32 %44, 1
  store i32 %45, i32* %6, align 4
  br label %28

46:                                               ; preds = %28
  br label %47

47:                                               ; preds = %46
  %48 = load i32, i32* %5, align 4
  %49 = add nsw i32 %48, 1
  store i32 %49, i32* %5, align 4
  br label %23

50:                                               ; preds = %23
  %51 = getelementptr inbounds [100 x [100 x i32]], [100 x [100 x i32]]* %3, i64 0, i64 1
  %52 = getelementptr inbounds [100 x i32], [100 x i32]* %51, i64 0, i64 0
  %53 = getelementptr inbounds [100 x i32], [100 x i32]* %2, i64 0, i64 1
  %54 = load i32, i32* %53, align 4
  call void @f(i32* %52, i32 %54)
  store i32 2, i32* %5, align 4
  br label %55

55:                                               ; preds = %69, %50
  %56 = load i32, i32* %5, align 4
  %57 = load i32, i32* %4, align 4
  %58 = icmp sle i32 %56, %57
  br i1 %58, label %59, label %72

59:                                               ; preds = %55
  %60 = call i32 (i8*, ...) @printf(i8* getelementptr inbounds ([2 x i8], [2 x i8]* @.str.2, i64 0, i64 0))
  %61 = load i32, i32* %5, align 4
  %62 = sext i32 %61 to i64
  %63 = getelementptr inbounds [100 x [100 x i32]], [100 x [100 x i32]]* %3, i64 0, i64 %62
  %64 = getelementptr inbounds [100 x i32], [100 x i32]* %63, i64 0, i64 0
  %65 = load i32, i32* %5, align 4
  %66 = sext i32 %65 to i64
  %67 = getelementptr inbounds [100 x i32], [100 x i32]* %2, i64 0, i64 %66
  %68 = load i32, i32* %67, align 4
  call void @f(i32* %64, i32 %68)
  br label %69

69:                                               ; preds = %59
  %70 = load i32, i32* %5, align 4
  %71 = add nsw i32 %70, 1
  store i32 %71, i32* %5, align 4
  br label %55

72:                                               ; preds = %55
  ret i32 0
}

declare dso_local i32 @__isoc99_scanf(i8*, ...) #1

; Function Attrs: noinline nounwind uwtable
define dso_local void @f(i32* %0, i32 %1) #0 {
  %3 = alloca i32*, align 8
  %4 = alloca i32, align 4
  %5 = alloca i32, align 4
  %6 = alloca i32, align 4
  %7 = alloca i32, align 4
  store i32* %0, i32** %3, align 8
  store i32 %1, i32* %4, align 4
  store i32 2, i32* %5, align 4
  br label %8

8:                                                ; preds = %58, %2
  %9 = load i32, i32* %5, align 4
  %10 = load i32, i32* %4, align 4
  %11 = icmp sle i32 %9, %10
  br i1 %11, label %12, label %61

12:                                               ; preds = %8
  %13 = load i32, i32* %5, align 4
  %14 = sub nsw i32 %13, 1
  store i32 %14, i32* %6, align 4
  br label %15

15:                                               ; preds = %54, %12
  %16 = load i32, i32* %6, align 4
  %17 = icmp sge i32 %16, 1
  br i1 %17, label %18, label %57

18:                                               ; preds = %15
  %19 = load i32*, i32** %3, align 8
  %20 = load i32, i32* %6, align 4
  %21 = add nsw i32 %20, 1
  %22 = sext i32 %21 to i64
  %23 = getelementptr inbounds i32, i32* %19, i64 %22
  %24 = load i32, i32* %23, align 4
  %25 = load i32*, i32** %3, align 8
  %26 = load i32, i32* %6, align 4
  %27 = sext i32 %26 to i64
  %28 = getelementptr inbounds i32, i32* %25, i64 %27
  %29 = load i32, i32* %28, align 4
  %30 = icmp slt i32 %24, %29
  br i1 %30, label %31, label %53

31:                                               ; preds = %18
  %32 = load i32*, i32** %3, align 8
  %33 = load i32, i32* %6, align 4
  %34 = sext i32 %33 to i64
  %35 = getelementptr inbounds i32, i32* %32, i64 %34
  %36 = load i32, i32* %35, align 4
  store i32 %36, i32* %7, align 4
  %37 = load i32*, i32** %3, align 8
  %38 = load i32, i32* %6, align 4
  %39 = add nsw i32 %38, 1
  %40 = sext i32 %39 to i64
  %41 = getelementptr inbounds i32, i32* %37, i64 %40
  %42 = load i32, i32* %41, align 4
  %43 = load i32*, i32** %3, align 8
  %44 = load i32, i32* %6, align 4
  %45 = sext i32 %44 to i64
  %46 = getelementptr inbounds i32, i32* %43, i64 %45
  store i32 %42, i32* %46, align 4
  %47 = load i32, i32* %7, align 4
  %48 = load i32*, i32** %3, align 8
  %49 = load i32, i32* %6, align 4
  %50 = add nsw i32 %49, 1
  %51 = sext i32 %50 to i64
  %52 = getelementptr inbounds i32, i32* %48, i64 %51
  store i32 %47, i32* %52, align 4
  br label %53

53:                                               ; preds = %31, %18
  br label %54

54:                                               ; preds = %53
  %55 = load i32, i32* %6, align 4
  %56 = add nsw i32 %55, -1
  store i32 %56, i32* %6, align 4
  br label %15

57:                                               ; preds = %15
  br label %58

58:                                               ; preds = %57
  %59 = load i32, i32* %5, align 4
  %60 = add nsw i32 %59, 1
  store i32 %60, i32* %5, align 4
  br label %8

61:                                               ; preds = %8
  %62 = load i32*, i32** %3, align 8
  %63 = getelementptr inbounds i32, i32* %62, i64 1
  %64 = load i32, i32* %63, align 4
  %65 = call i32 (i8*, ...) @printf(i8* getelementptr inbounds ([3 x i8], [3 x i8]* @.str, i64 0, i64 0), i32 %64)
  store i32 2, i32* %5, align 4
  br label %66

66:                                               ; preds = %77, %61
  %67 = load i32, i32* %5, align 4
  %68 = load i32, i32* %4, align 4
  %69 = icmp sle i32 %67, %68
  br i1 %69, label %70, label %80

70:                                               ; preds = %66
  %71 = load i32*, i32** %3, align 8
  %72 = load i32, i32* %5, align 4
  %73 = sext i32 %72 to i64
  %74 = getelementptr inbounds i32, i32* %71, i64 %73
  %75 = load i32, i32* %74, align 4
  %76 = call i32 (i8*, ...) @printf(i8* getelementptr inbounds ([4 x i8], [4 x i8]* @.str.3, i64 0, i64 0), i32 %75)
  br label %77

77:                                               ; preds = %70
  %78 = load i32, i32* %5, align 4
  %79 = add nsw i32 %78, 1
  store i32 %79, i32* %5, align 4
  br label %66

80:                                               ; preds = %66
  ret void
}

declare dso_local i32 @printf(i8*, ...) #1


!llvm.module.flags = !{!0}
!llvm.ident = !{!1}

!0 = !{i32 1, !"wchar_size", i32 4}
!1 = !{!"clang version 10.0.0-4ubuntu1 "}
